target datalayout = "e-m:e-p270:32:32-p271:32:32-p272:64:64-i64:64-i128:128-f80:128-n8:16:32:64-S128"
target triple = "x86_64-pc-linux-gnu"

@.str.2 = private unnamed_addr constant [4 x i8] c"ALL\00", align 1

; Function Attrs: inlinehint nounwind willreturn memory(none) uwtable
define internal i32 @av_tolower(i32 noundef %0) #1 {
  %2 = alloca i32, align 4
  store i32 %0, ptr %2, align 4, !tbaa !16
  %3 = load i32, ptr %2, align 4, !tbaa !16
  %4 = icmp sge i32 %3, 65
  br i1 %4, label %5, label %11

5:                                                ; preds = %1
  %6 = load i32, ptr %2, align 4, !tbaa !16
  %7 = icmp sle i32 %6, 90
  br i1 %7, label %8, label %11

8:                                                ; preds = %5
  %9 = load i32, ptr %2, align 4, !tbaa !16
  %10 = xor i32 %9, 32
  store i32 %10, ptr %2, align 4, !tbaa !16
  br label %11

11:                                               ; preds = %8, %5, %1
  %12 = load i32, ptr %2, align 4, !tbaa !16
  ret i32 %12
}

; Function Attrs: nounwind uwtable
define i32 @av_strncasecmp(ptr noundef %0, ptr noundef %1, i64 noundef %2) #0 {
  %4 = alloca i32, align 4
  %5 = alloca ptr, align 8
  %6 = alloca ptr, align 8
  %7 = alloca i64, align 8
  %8 = alloca i8, align 1
  %9 = alloca i8, align 1
  %10 = alloca i32, align 4
  store ptr %0, ptr %5, align 8, !tbaa !4
  store ptr %1, ptr %6, align 8, !tbaa !4
  store i64 %2, ptr %7, align 8, !tbaa !19
  call void @llvm.lifetime.start.p0(i64 1, ptr %8) #11
  call void @llvm.lifetime.start.p0(i64 1, ptr %9) #11
  %11 = load i64, ptr %7, align 8, !tbaa !19
  %12 = icmp ule i64 %11, 0
  br i1 %12, label %13, label %14

13:                                               ; preds = %3
  store i32 0, ptr %4, align 4
  store i32 1, ptr %10, align 4
  br label %50

14:                                               ; preds = %3
  br label %15

15:                                               ; preds = %42, %14
  %16 = load ptr, ptr %5, align 8, !tbaa !4
  %17 = getelementptr inbounds nuw i8, ptr %16, i32 1
  store ptr %17, ptr %5, align 8, !tbaa !4
  %18 = load i8, ptr %16, align 1, !tbaa !12
  %19 = sext i8 %18 to i32
  %20 = call i32 @av_tolower(i32 noundef %19) #10
  %21 = trunc i32 %20 to i8
  store i8 %21, ptr %8, align 1, !tbaa !12
  %22 = load ptr, ptr %6, align 8, !tbaa !4
  %23 = getelementptr inbounds nuw i8, ptr %22, i32 1
  store ptr %23, ptr %6, align 8, !tbaa !4
  %24 = load i8, ptr %22, align 1, !tbaa !12
  %25 = sext i8 %24 to i32
  %26 = call i32 @av_tolower(i32 noundef %25) #10
  %27 = trunc i32 %26 to i8
  store i8 %27, ptr %9, align 1, !tbaa !12
  br label %28

28:                                               ; preds = %15
  %29 = load i64, ptr %7, align 8, !tbaa !19
  %30 = add i64 %29, -1
  store i64 %30, ptr %7, align 8, !tbaa !19
  %31 = icmp ne i64 %30, 0
  br i1 %31, label %32, label %42

32:                                               ; preds = %28
  %33 = load i8, ptr %8, align 1, !tbaa !12
  %34 = zext i8 %33 to i32
  %35 = icmp ne i32 %34, 0
  br i1 %35, label %36, label %42

36:                                               ; preds = %32
  %37 = load i8, ptr %8, align 1, !tbaa !12
  %38 = zext i8 %37 to i32
  %39 = load i8, ptr %9, align 1, !tbaa !12
  %40 = zext i8 %39 to i32
  %41 = icmp eq i32 %38, %40
  br label %42

42:                                               ; preds = %36, %32, %28
  %43 = phi i1 [ false, %32 ], [ false, %28 ], [ %41, %36 ]
  br i1 %43, label %15, label %44, !llvm.loop !27

44:                                               ; preds = %42
  %45 = load i8, ptr %8, align 1, !tbaa !12
  %46 = zext i8 %45 to i32
  %47 = load i8, ptr %9, align 1, !tbaa !12
  %48 = zext i8 %47 to i32
  %49 = sub nsw i32 %46, %48
  store i32 %49, ptr %4, align 4
  store i32 1, ptr %10, align 4
  br label %50

50:                                               ; preds = %44, %13
  call void @llvm.lifetime.end.p0(i64 1, ptr %9) #11
  call void @llvm.lifetime.end.p0(i64 1, ptr %8) #11
  %51 = load i32, ptr %4, align 4
  ret i32 %51
}

; Function Attrs: nounwind uwtable
define i32 @av_match_name(ptr noundef %0, ptr noundef %1) #0 {
  %3 = alloca i32, align 4
  %4 = alloca ptr, align 8
  %5 = alloca ptr, align 8
  %6 = alloca ptr, align 8
  %7 = alloca i64, align 8
  %8 = alloca i64, align 8
  %9 = alloca i32, align 4
  %10 = alloca i32, align 4
  store ptr %0, ptr %4, align 8, !tbaa !4
  store ptr %1, ptr %5, align 8, !tbaa !4
  call void @llvm.lifetime.start.p0(i64 8, ptr %6) #11
  call void @llvm.lifetime.start.p0(i64 8, ptr %7) #11
  call void @llvm.lifetime.start.p0(i64 8, ptr %8) #11
  %11 = load ptr, ptr %4, align 8, !tbaa !4
  %12 = icmp ne ptr %11, null
  br i1 %12, label %13, label %16

13:                                               ; preds = %2
  %14 = load ptr, ptr %5, align 8, !tbaa !4
  %15 = icmp ne ptr %14, null
  br i1 %15, label %17, label %16

16:                                               ; preds = %13, %2
  store i32 0, ptr %3, align 4
  store i32 1, ptr %9, align 4
  br label %103

17:                                               ; preds = %13
  %18 = load ptr, ptr %4, align 8, !tbaa !4
  %19 = call i64 @strlen(ptr noundef %18) #12
  store i64 %19, ptr %8, align 8, !tbaa !19
  br label %20

20:                                               ; preds = %101, %17
  %21 = load ptr, ptr %5, align 8, !tbaa !4
  %22 = load i8, ptr %21, align 1, !tbaa !12
  %23 = icmp ne i8 %22, 0
  br i1 %23, label %24, label %102

24:                                               ; preds = %20
  call void @llvm.lifetime.start.p0(i64 4, ptr %10) #11
  %25 = load ptr, ptr %5, align 8, !tbaa !4
  %26 = load i8, ptr %25, align 1, !tbaa !12
  %27 = sext i8 %26 to i32
  %28 = icmp eq i32 45, %27
  %29 = zext i1 %28 to i32
  store i32 %29, ptr %10, align 4, !tbaa !16
  %30 = load ptr, ptr %5, align 8, !tbaa !4
  %31 = call ptr @strchr(ptr noundef %30, i32 noundef 44) #12
  store ptr %31, ptr %6, align 8, !tbaa !4
  %32 = load ptr, ptr %6, align 8, !tbaa !4
  %33 = icmp ne ptr %32, null
  br i1 %33, label %39, label %34

34:                                               ; preds = %24
  %35 = load ptr, ptr %5, align 8, !tbaa !4
  %36 = load ptr, ptr %5, align 8, !tbaa !4
  %37 = call i64 @strlen(ptr noundef %36) #12
  %38 = getelementptr inbounds nuw i8, ptr %35, i64 %37
  store ptr %38, ptr %6, align 8, !tbaa !4
  br label %39

39:                                               ; preds = %34, %24
  %40 = load i32, ptr %10, align 4, !tbaa !16
  %41 = load ptr, ptr %5, align 8, !tbaa !4
  %42 = sext i32 %40 to i64
  %43 = getelementptr inbounds i8, ptr %41, i64 %42
  store ptr %43, ptr %5, align 8, !tbaa !4
  %44 = load ptr, ptr %6, align 8, !tbaa !4
  %45 = load ptr, ptr %5, align 8, !tbaa !4
  %46 = ptrtoint ptr %44 to i64
  %47 = ptrtoint ptr %45 to i64
  %48 = sub i64 %46, %47
  %49 = load i64, ptr %8, align 8, !tbaa !19
  %50 = icmp ugt i64 %48, %49
  br i1 %50, label %51, label %57

51:                                               ; preds = %39
  %52 = load ptr, ptr %6, align 8, !tbaa !4
  %53 = load ptr, ptr %5, align 8, !tbaa !4
  %54 = ptrtoint ptr %52 to i64
  %55 = ptrtoint ptr %53 to i64
  %56 = sub i64 %54, %55
  br label %59

57:                                               ; preds = %39
  %58 = load i64, ptr %8, align 8, !tbaa !19
  br label %59

59:                                               ; preds = %57, %51
  %60 = phi i64 [ %56, %51 ], [ %58, %57 ]
  store i64 %60, ptr %7, align 8, !tbaa !19
  %61 = load ptr, ptr %4, align 8, !tbaa !4
  %62 = load ptr, ptr %5, align 8, !tbaa !4
  %63 = load i64, ptr %7, align 8, !tbaa !19
  %64 = call i32 @av_strncasecmp(ptr noundef %61, ptr noundef %62, i64 noundef %63)
  %65 = icmp ne i32 %64, 0
  br i1 %65, label %66, label %85

66:                                               ; preds = %59
  %67 = load ptr, ptr %5, align 8, !tbaa !4
  %68 = load ptr, ptr %6, align 8, !tbaa !4
  %69 = load ptr, ptr %5, align 8, !tbaa !4
  %70 = ptrtoint ptr %68 to i64
  %71 = ptrtoint ptr %69 to i64
  %72 = sub i64 %70, %71
  %73 = icmp sgt i64 3, %72
  br i1 %73, label %74, label %75

74:                                               ; preds = %66
  br label %81

75:                                               ; preds = %66
  %76 = load ptr, ptr %6, align 8, !tbaa !4
  %77 = load ptr, ptr %5, align 8, !tbaa !4
  %78 = ptrtoint ptr %76 to i64
  %79 = ptrtoint ptr %77 to i64
  %80 = sub i64 %78, %79
  br label %81

81:                                               ; preds = %75, %74
  %82 = phi i64 [ 3, %74 ], [ %80, %75 ]
  %83 = call i32 @strncmp(ptr noundef @.str.2, ptr noundef %67, i64 noundef %82) #12
  %84 = icmp ne i32 %83, 0
  br i1 %84, label %90, label %85

85:                                               ; preds = %81, %59
  %86 = load i32, ptr %10, align 4, !tbaa !16
  %87 = icmp ne i32 %86, 0
  %88 = xor i1 %87, true
  %89 = zext i1 %88 to i32
  store i32 %89, ptr %3, align 4
  store i32 1, ptr %9, align 4
  br label %99

90:                                               ; preds = %81
  %91 = load ptr, ptr %6, align 8, !tbaa !4
  %92 = load ptr, ptr %6, align 8, !tbaa !4
  %93 = load i8, ptr %92, align 1, !tbaa !12
  %94 = sext i8 %93 to i32
  %95 = icmp eq i32 %94, 44
  %96 = zext i1 %95 to i32
  %97 = sext i32 %96 to i64
  %98 = getelementptr inbounds i8, ptr %91, i64 %97
  store ptr %98, ptr %5, align 8, !tbaa !4
  store i32 0, ptr %9, align 4
  br label %99

99:                                               ; preds = %90, %85
  call void @llvm.lifetime.end.p0(i64 4, ptr %10) #11
  %100 = load i32, ptr %9, align 4
  switch i32 %100, label %103 [
    i32 0, label %101
  ]

101:                                              ; preds = %99
  br label %20, !llvm.loop !34

102:                                              ; preds = %20
  store i32 0, ptr %3, align 4
  store i32 1, ptr %9, align 4
  br label %103

103:                                              ; preds = %102, %99, %16
  call void @llvm.lifetime.end.p0(i64 8, ptr %8) #11
  call void @llvm.lifetime.end.p0(i64 8, ptr %7) #11
  call void @llvm.lifetime.end.p0(i64 8, ptr %6) #11
  %104 = load i32, ptr %3, align 4
  ret i32 %104
}