; Function Attrs: nofree norecurse nounwind memory(read, inaccessiblemem: none) uwtable
define range(i32 0, 2) i32 @av_match_name(ptr noundef readonly captures(address_is_null) %0, ptr noundef %1) local_unnamed_addr #14 {
  %3 = icmp ne ptr %0, null
  %4 = icmp ne ptr %1, null
  %or.cond = and i1 %3, %4
  br i1 %or.cond, label %5, label %.loopexit

5:                                                ; preds = %2
  %6 = tail call i64 @strlen(ptr noundef nonnull dereferenceable(1) %0) #18
  %7 = load i8, ptr %1, align 1, !tbaa !4
  %.not48 = icmp eq i8 %7, 0
  br i1 %.not48, label %.loopexit, label %.lr.ph

.lr.ph:                                           ; preds = %5, %43
  %8 = phi i8 [ %48, %43 ], [ %7, %5 ]
  %.03149 = phi ptr [ %47, %43 ], [ %1, %5 ]
  %9 = icmp eq i8 %8, 45
  %10 = tail call ptr @strchr(ptr noundef nonnull dereferenceable(1) %.03149, i32 noundef 44) #18
  %.not38 = icmp eq ptr %10, null
  br i1 %.not38, label %11, label %14

11:                                               ; preds = %.lr.ph
  %12 = tail call i64 @strlen(ptr noundef nonnull dereferenceable(1) %.03149) #18
  %13 = getelementptr inbounds nuw i8, ptr %.03149, i64 %12
  br label %14

14:                                               ; preds = %11, %.lr.ph
  %.033 = phi ptr [ %10, %.lr.ph ], [ %13, %11 ]
  %15 = zext i1 %9 to i64
  %16 = getelementptr inbounds nuw i8, ptr %.03149, i64 %15
  %17 = ptrtoint ptr %.033 to i64
  %18 = ptrtoint ptr %16 to i64
  %19 = sub i64 %17, %18
  %20 = tail call i64 @llvm.umax.i64(i64 %19, i64 %6)
  %21 = icmp eq i64 %20, 0
  br i1 %21, label %.thread, label %.preheader.i

.preheader.i:                                     ; preds = %14, %.preheader.i
  %.013.i = phi ptr [ %34, %.preheader.i ], [ %16, %14 ]
  %.012.i = phi i64 [ %30, %.preheader.i ], [ %20, %14 ]
  %.011.i = phi ptr [ %35, %.preheader.i ], [ %0, %14 ]
  %22 = load i8, ptr %.011.i, align 1, !tbaa !4
  %23 = sext i8 %22 to i32
  %24 = add nsw i32 %23, -65
  %or.cond.i.i = icmp ult i32 %24, 26
  %25 = or disjoint i32 %23, 32
  %spec.select.i.i = select i1 %or.cond.i.i, i32 %25, i32 %23
  %26 = load i8, ptr %.013.i, align 1, !tbaa !4
  %27 = sext i8 %26 to i32
  %28 = add nsw i32 %27, -65
  %or.cond.i21.i = icmp ult i32 %28, 26
  %29 = or disjoint i32 %27, 32
  %spec.select.i22.i = select i1 %or.cond.i21.i, i32 %29, i32 %27
  %30 = add i64 %.012.i, -1
  %31 = icmp ne i64 %30, 0
  %32 = and i32 %spec.select.i.i, 255
  %33 = icmp ne i32 %32, 0
  %or.cond.i = select i1 %31, i1 %33, i1 false
  %34 = getelementptr inbounds nuw i8, ptr %.013.i, i64 1
  %35 = getelementptr inbounds nuw i8, ptr %.011.i, i64 1
  %36 = and i32 %spec.select.i22.i, 255
  %37 = icmp eq i32 %32, %36
  %or.cond20.i = select i1 %or.cond.i, i1 %37, i1 false
  br i1 %or.cond20.i, label %.preheader.i, label %av_strncasecmp.exit, !llvm.loop !20

av_strncasecmp.exit:                              ; preds = %.preheader.i
  br i1 %37, label %.thread, label %38

38:                                               ; preds = %av_strncasecmp.exit
  %39 = tail call i64 @llvm.smax.i64(i64 %19, i64 3)
  %40 = tail call i32 @strncmp(ptr noundef nonnull dereferenceable(1) @.str.2, ptr noundef nonnull dereferenceable(1) %16, i64 noundef %39) #18
  %.not40 = icmp eq i32 %40, 0
  br i1 %.not40, label %.thread, label %43

.thread:                                          ; preds = %av_strncasecmp.exit, %38, %14
  %41 = xor i1 %9, true
  %42 = zext i1 %41 to i32
  br label %.loopexit

43:                                               ; preds = %38
  %44 = load i8, ptr %.033, align 1, !tbaa !4
  %45 = icmp eq i8 %44, 44
  %46 = zext i1 %45 to i64
  %47 = getelementptr inbounds nuw i8, ptr %.033, i64 %46
  %48 = load i8, ptr %47, align 1, !tbaa !4
  %.not = icmp eq i8 %48, 0
  br i1 %.not, label %.loopexit, label %.lr.ph, !llvm.loop !26

.loopexit:                                        ; preds = %43, %5, %.thread, %2
  %.0 = phi i32 [ 0, %2 ], [ %42, %.thread ], [ 0, %5 ], [ 0, %43 ]
  ret i32 %.0
}